target datalayout = "e-m:e-p270:32:32-p271:32:32-p272:64:64-i64:64-i128:128-f80:128-n8:16:32:64-S128"
target triple = "x86_64-pc-linux-gnu"

%struct.insn_data_struct = type { i32, i32, ptr, ptr }
%struct.rb_code_location_struct = type { %struct.rb_code_position_struct, %struct.rb_code_position_struct }
%struct.rb_code_position_struct = type { i32, i32 }
%struct.rb_iseq_struct = type { i64, i64, ptr, %union.anon.13 }
%union.anon.13 = type { %struct.anon.14 }
%struct.anon.14 = type { i64, i32 }
%struct.rb_iseq_constant_body = type { i32, i32, ptr, %struct.anon.16, %struct.rb_iseq_location_struct, %struct.iseq_insn_info, ptr, ptr, ptr, ptr, ptr, ptr, %struct.anon.17, i32, i32, i32, i32, i32, i32, i32, i32, i8, %union.anon.18, ptr, ptr, ptr, i64, ptr, i64, ptr, i64 }
%struct.anon.16 = type { %struct.anon, i32, i32, i32, i32, i32, i32, i32, ptr, ptr }
%struct.anon = type { i16, [2 x i8] }
%struct.rb_iseq_location_struct = type { i64, i64, i64, i32, i32, %struct.rb_code_location_struct }
%struct.iseq_insn_info = type { ptr, ptr, i32, ptr }
%struct.anon.17 = type { i64, i64, i64, i64, ptr }
%union.anon.18 = type { ptr }

@encoded_insn_data = internal global ptr null, align 8
@.str.201 = private unnamed_addr constant [43 x i8] c"trace_instrument: invalid insn address: %p\00", align 1

; Function Attrs: inlinehint nounwind sspstrong uwtable
define internal i32 @encoded_iseq_trace_instrument(ptr noundef %0, i32 noundef %1, i1 noundef zeroext %2) #5 {
  %4 = alloca ptr, align 8
  %5 = alloca i32, align 4
  %6 = alloca i8, align 1
  %7 = alloca i64, align 8
  %8 = alloca i64, align 8
  %9 = alloca ptr, align 8
  store ptr %0, ptr %4, align 8, !tbaa !66
  store i32 %1, ptr %5, align 4, !tbaa !56
  %10 = zext i1 %2 to i8
  store i8 %10, ptr %6, align 1, !tbaa !86
  call void @llvm.lifetime.start.p0(i64 8, ptr %7) #24
  %11 = load ptr, ptr %4, align 8, !tbaa !66
  %12 = load i64, ptr %11, align 8, !tbaa !17
  store i64 %12, ptr %7, align 8, !tbaa !17
  call void @llvm.lifetime.start.p0(i64 8, ptr %8) #24
  %13 = load ptr, ptr @encoded_insn_data, align 8, !tbaa !294
  %14 = load i64, ptr %7, align 8, !tbaa !17
  %15 = call i32 @rb_st_lookup(ptr noundef %13, i64 noundef %14, ptr noundef %8)
  %16 = icmp ne i32 %15, 0
  br i1 %16, label %17, label %48

17:                                               ; preds = %3
  call void @llvm.lifetime.start.p0(i64 8, ptr %9) #24
  %18 = load i64, ptr %8, align 8, !tbaa !17
  %19 = inttoptr i64 %18 to ptr
  store ptr %19, ptr %9, align 8, !tbaa !337
  %20 = load i8, ptr %6, align 1, !tbaa !86, !range !87, !noundef !88
  %21 = trunc i8 %20 to i1
  br i1 %21, label %22, label %30

22:                                               ; preds = %17
  %23 = load i64, ptr %7, align 8, !tbaa !17
  %24 = load ptr, ptr %9, align 8, !tbaa !337
  %25 = getelementptr inbounds nuw %struct.insn_data_struct, ptr %24, i32 0, i32 3
  %26 = load ptr, ptr %25, align 8, !tbaa !335
  %27 = ptrtoint ptr %26 to i64
  %28 = icmp eq i64 %23, %27
  br i1 %28, label %29, label %30

29:                                               ; preds = %22
  store i32 1, ptr %5, align 4, !tbaa !56
  br label %30

30:                                               ; preds = %29, %22, %17
  %31 = load i32, ptr %5, align 4, !tbaa !56
  %32 = icmp ne i32 %31, 0
  br i1 %32, label %33, label %37

33:                                               ; preds = %30
  %34 = load ptr, ptr %9, align 8, !tbaa !337
  %35 = getelementptr inbounds nuw %struct.insn_data_struct, ptr %34, i32 0, i32 3
  %36 = load ptr, ptr %35, align 8, !tbaa !335
  br label %41

37:                                               ; preds = %30
  %38 = load ptr, ptr %9, align 8, !tbaa !337
  %39 = getelementptr inbounds nuw %struct.insn_data_struct, ptr %38, i32 0, i32 2
  %40 = load ptr, ptr %39, align 8, !tbaa !334
  br label %41

41:                                               ; preds = %37, %33
  %42 = phi ptr [ %36, %33 ], [ %40, %37 ]
  %43 = ptrtoint ptr %42 to i64
  %44 = load ptr, ptr %4, align 8, !tbaa !66
  store i64 %43, ptr %44, align 8, !tbaa !17
  %45 = load ptr, ptr %9, align 8, !tbaa !337
  %46 = getelementptr inbounds nuw %struct.insn_data_struct, ptr %45, i32 0, i32 1
  %47 = load i32, ptr %46, align 4, !tbaa !333
  call void @llvm.lifetime.end.p0(i64 8, ptr %9) #24
  call void @llvm.lifetime.end.p0(i64 8, ptr %8) #24
  call void @llvm.lifetime.end.p0(i64 8, ptr %7) #24
  ret i32 %47

48:                                               ; preds = %3
  %49 = load ptr, ptr %4, align 8, !tbaa !66
  %50 = load i64, ptr %49, align 8, !tbaa !17
  %51 = inttoptr i64 %50 to ptr
  call void (ptr, ...) @rb_bug(ptr noundef @.str.201, ptr noundef %51) #30
  unreachable
}

; Function Attrs: nounwind sspstrong uwtable
define hidden void @rb_iseq_trace_flag_cleared(ptr noundef %0, i64 noundef %1) #0 {
  %3 = alloca ptr, align 8
  %4 = alloca i64, align 8
  %5 = alloca ptr, align 8
  %6 = alloca ptr, align 8
  store ptr %0, ptr %3, align 8, !tbaa !7
  store i64 %1, ptr %4, align 8, !tbaa !17
  call void @llvm.lifetime.start.p0(i64 8, ptr %5) #24
  %7 = load ptr, ptr %3, align 8, !tbaa !7
  %8 = getelementptr inbounds nuw %struct.rb_iseq_struct, ptr %7, i32 0, i32 2
  %9 = load ptr, ptr %8, align 8, !tbaa !12
  store ptr %9, ptr %5, align 8, !tbaa !16
  call void @llvm.lifetime.start.p0(i64 8, ptr %6) #24
  %10 = load ptr, ptr %5, align 8, !tbaa !16
  %11 = getelementptr inbounds nuw %struct.rb_iseq_constant_body, ptr %10, i32 0, i32 2
  %12 = load ptr, ptr %11, align 8, !tbaa !18
  store ptr %12, ptr %6, align 8, !tbaa !66
  %13 = load ptr, ptr %6, align 8, !tbaa !66
  %14 = load i64, ptr %4, align 8, !tbaa !17
  %15 = getelementptr i64, ptr %13, i64 %14
  %16 = call i32 @encoded_iseq_trace_instrument(ptr noundef %15, i32 noundef 0, i1 noundef zeroext false)
  call void @llvm.lifetime.end.p0(i64 8, ptr %6) #24
  call void @llvm.lifetime.end.p0(i64 8, ptr %5) #24
  ret void
}