; Function Attrs: nounwind sspstrong uwtable
define hidden void @rb_iseq_trace_flag_cleared(ptr noundef readonly captures(none) %0, i64 noundef %1) local_unnamed_addr #0 {
  %3 = alloca i64, align 8
  %4 = getelementptr inbounds nuw i8, ptr %0, i64 16
  %5 = load ptr, ptr %4, align 8, !tbaa !7
  %6 = getelementptr inbounds nuw i8, ptr %5, i64 8
  %7 = load ptr, ptr %6, align 8, !tbaa !76
  %8 = getelementptr i64, ptr %7, i64 %1
  %9 = load i64, ptr %8, align 8, !tbaa !42
  call void @llvm.lifetime.start.p0(i64 8, ptr nonnull %3) #20
  %10 = load ptr, ptr @encoded_insn_data, align 8, !tbaa !165
  %11 = call i32 @rb_st_lookup(ptr noundef %10, i64 noundef %9, ptr noundef nonnull %3) #20
  %.not.i = icmp eq i32 %11, 0
  br i1 %.not.i, label %12, label %encoded_iseq_trace_instrument.exit

12:                                               ; preds = %2
  %13 = load i64, ptr %8, align 8, !tbaa !42
  %14 = inttoptr i64 %13 to ptr
  call void (ptr, ...) @rb_bug(ptr noundef nonnull @.str.201, ptr noundef %14) #23
  unreachable

encoded_iseq_trace_instrument.exit:               ; preds = %2
  %15 = load i64, ptr %3, align 8, !tbaa !42
  %16 = inttoptr i64 %15 to ptr
  %.in.i = getelementptr inbounds nuw i8, ptr %16, i64 8
  %17 = load ptr, ptr %.in.i, align 8, !tbaa !168
  %18 = ptrtoint ptr %17 to i64
  store i64 %18, ptr %8, align 8, !tbaa !42
  call void @llvm.lifetime.end.p0(i64 8, ptr nonnull %3) #20
  ret void
}